; ModuleID = '21/2029.c'
source_filename = "21/2029.c"
target datalayout = "e-m:e-p270:32:32-p271:32:32-p272:64:64-i64:64-f80:128-n8:16:32:64-S128"
target triple = "x86_64-pc-linux-gnu"

@.str = private unnamed_addr constant [3 x i8] c"%d\00", align 1
@.str.1 = private unnamed_addr constant [6 x i8] c"%d,%d\00", align 1

; Function Attrs: noinline nounwind uwtable
define dso_local void @main() #0 {
  %1 = alloca [300 x i32], align 16
  %2 = alloca i32, align 4
  %3 = alloca i32, align 4
  %4 = alloca i32, align 4
  %5 = alloca i32, align 4
  %6 = alloca i32, align 4
  %7 = alloca double, align 8
  %8 = alloca double, align 8
  store i32 0, i32* %4, align 4
  store i32 0, i32* %5, align 4
  store i32 0, i32* %6, align 4
  store double 0.000000e+00, double* %8, align 8
  %9 = call i32 (i8*, ...) @__isoc99_scanf(i8* getelementptr inbounds ([3 x i8], [3 x i8]* @.str, i64 0, i64 0), i32* %2)
  store i32 0, i32* %3, align 4
  br label %10

10:                                               ; preds = %25, %0
  %11 = load i32, i32* %3, align 4
  %12 = load i32, i32* %2, align 4
  %13 = icmp slt i32 %11, %12
  br i1 %13, label %14, label %28

14:                                               ; preds = %10
  %15 = load i32, i32* %3, align 4
  %16 = sext i32 %15 to i64
  %17 = getelementptr inbounds [300 x i32], [300 x i32]* %1, i64 0, i64 %16
  %18 = call i32 (i8*, ...) @__isoc99_scanf(i8* getelementptr inbounds ([3 x i8], [3 x i8]* @.str, i64 0, i64 0), i32* %17)
  %19 = load i32, i32* %3, align 4
  %20 = sext i32 %19 to i64
  %21 = getelementptr inbounds [300 x i32], [300 x i32]* %1, i64 0, i64 %20
  %22 = load i32, i32* %21, align 4
  %23 = load i32, i32* %6, align 4
  %24 = add nsw i32 %23, %22
  store i32 %24, i32* %6, align 4
  br label %25

25:                                               ; preds = %14
  %26 = load i32, i32* %3, align 4
  %27 = add nsw i32 %26, 1
  store i32 %27, i32* %3, align 4
  br label %10

28:                                               ; preds = %10
  %29 = load i32, i32* %6, align 4
  %30 = sitofp i32 %29 to float
  %31 = load i32, i32* %2, align 4
  %32 = sitofp i32 %31 to float
  %33 = fdiv float %30, %32
  %34 = fpext float %33 to double
  store double %34, double* %7, align 8
  store i32 0, i32* %3, align 4
  br label %35

35:                                               ; preds = %84, %28
  %36 = load i32, i32* %3, align 4
  %37 = load i32, i32* %2, align 4
  %38 = icmp slt i32 %36, %37
  br i1 %38, label %39, label %87

39:                                               ; preds = %35
  %40 = load double, double* %8, align 8
  %41 = load i32, i32* %3, align 4
  %42 = sext i32 %41 to i64
  %43 = getelementptr inbounds [300 x i32], [300 x i32]* %1, i64 0, i64 %42
  %44 = load i32, i32* %43, align 4
  %45 = sitofp i32 %44 to double
  %46 = load double, double* %7, align 8
  %47 = fsub double %45, %46
  %48 = call double @llvm.fabs.f64(double %47)
  %49 = fcmp olt double %40, %48
  br i1 %49, label %50, label %60

50:                                               ; preds = %39
  %51 = load i32, i32* %3, align 4
  %52 = sext i32 %51 to i64
  %53 = getelementptr inbounds [300 x i32], [300 x i32]* %1, i64 0, i64 %52
  %54 = load i32, i32* %53, align 4
  %55 = sitofp i32 %54 to double
  %56 = load double, double* %7, align 8
  %57 = fsub double %55, %56
  %58 = call double @llvm.fabs.f64(double %57)
  store double %58, double* %8, align 8
  %59 = load i32, i32* %3, align 4
  store i32 %59, i32* %4, align 4
  br label %60

60:                                               ; preds = %50, %39
  %61 = load double, double* %8, align 8
  %62 = load i32, i32* %3, align 4
  %63 = sext i32 %62 to i64
  %64 = getelementptr inbounds [300 x i32], [300 x i32]* %1, i64 0, i64 %63
  %65 = load i32, i32* %64, align 4
  %66 = sitofp i32 %65 to double
  %67 = load double, double* %7, align 8
  %68 = fsub double %66, %67
  %69 = call double @llvm.fabs.f64(double %68)
  %70 = fcmp oeq double %61, %69
  br i1 %70, label %71, label %83

71:                                               ; preds = %60
  %72 = load i32, i32* %3, align 4
  %73 = sext i32 %72 to i64
  %74 = getelementptr inbounds [300 x i32], [300 x i32]* %1, i64 0, i64 %73
  %75 = load i32, i32* %74, align 4
  %76 = load i32, i32* %4, align 4
  %77 = sext i32 %76 to i64
  %78 = getelementptr inbounds [300 x i32], [300 x i32]* %1, i64 0, i64 %77
  %79 = load i32, i32* %78, align 4
  %80 = icmp ne i32 %75, %79
  br i1 %80, label %81, label %83

81:                                               ; preds = %71
  %82 = load i32, i32* %3, align 4
  store i32 %82, i32* %5, align 4
  br label %83

83:                                               ; preds = %81, %71, %60
  br label %84

84:                                               ; preds = %83
  %85 = load i32, i32* %3, align 4
  %86 = add nsw i32 %85, 1
  store i32 %86, i32* %3, align 4
  br label %35

87:                                               ; preds = %35
  %88 = load i32, i32* %4, align 4
  %89 = sext i32 %88 to i64
  %90 = getelementptr inbounds [300 x i32], [300 x i32]* %1, i64 0, i64 %89
  %91 = load i32, i32* %90, align 4
  %92 = sitofp i32 %91 to double
  %93 = load double, double* %7, align 8
  %94 = fsub double %92, %93
  %95 = call double @llvm.fabs.f64(double %94)
  %96 = load i32, i32* %5, align 4
  %97 = sext i32 %96 to i64
  %98 = getelementptr inbounds [300 x i32], [300 x i32]* %1, i64 0, i64 %97
  %99 = load i32, i32* %98, align 4
  %100 = sitofp i32 %99 to double
  %101 = load double, double* %7, align 8
  %102 = fsub double %100, %101
  %103 = call double @llvm.fabs.f64(double %102)
  %104 = fcmp oeq double %95, %103
  br i1 %104, label %105, label %153

105:                                              ; preds = %87
  %106 = load i32, i32* %4, align 4
  %107 = sext i32 %106 to i64
  %108 = getelementptr inbounds [300 x i32], [300 x i32]* %1, i64 0, i64 %107
  %109 = load i32, i32* %108, align 4
  %110 = load i32, i32* %5, align 4
  %111 = sext i32 %110 to i64
  %112 = getelementptr inbounds [300 x i32], [300 x i32]* %1, i64 0, i64 %111
  %113 = load i32, i32* %112, align 4
  %114 = icmp sgt i32 %109, %113
  br i1 %114, label %115, label %125

115:                                              ; preds = %105
  %116 = load i32, i32* %5, align 4
  %117 = sext i32 %116 to i64
  %118 = getelementptr inbounds [300 x i32], [300 x i32]* %1, i64 0, i64 %117
  %119 = load i32, i32* %118, align 4
  %120 = load i32, i32* %4, align 4
  %121 = sext i32 %120 to i64
  %122 = getelementptr inbounds [300 x i32], [300 x i32]* %1, i64 0, i64 %121
  %123 = load i32, i32* %122, align 4
  %124 = call i32 (i8*, ...) @printf(i8* getelementptr inbounds ([6 x i8], [6 x i8]* @.str.1, i64 0, i64 0), i32 %119, i32 %123)
  br label %152

125:                                              ; preds = %105
  %126 = load i32, i32* %4, align 4
  %127 = sext i32 %126 to i64
  %128 = getelementptr inbounds [300 x i32], [300 x i32]* %1, i64 0, i64 %127
  %129 = load i32, i32* %128, align 4
  %130 = load i32, i32* %5, align 4
  %131 = sext i32 %130 to i64
  %132 = getelementptr inbounds [300 x i32], [300 x i32]* %1, i64 0, i64 %131
  %133 = load i32, i32* %132, align 4
  %134 = icmp eq i32 %129, %133
  br i1 %134, label %135, label %141

135:                                              ; preds = %125
  %136 = load i32, i32* %4, align 4
  %137 = sext i32 %136 to i64
  %138 = getelementptr inbounds [300 x i32], [300 x i32]* %1, i64 0, i64 %137
  %139 = load i32, i32* %138, align 4
  %140 = call i32 (i8*, ...) @printf(i8* getelementptr inbounds ([3 x i8], [3 x i8]* @.str, i64 0, i64 0), i32 %139)
  br label %151

141:                                              ; preds = %125
  %142 = load i32, i32* %4, align 4
  %143 = sext i32 %142 to i64
  %144 = getelementptr inbounds [300 x i32], [300 x i32]* %1, i64 0, i64 %143
  %145 = load i32, i32* %144, align 4
  %146 = load i32, i32* %5, align 4
  %147 = sext i32 %146 to i64
  %148 = getelementptr inbounds [300 x i32], [300 x i32]* %1, i64 0, i64 %147
  %149 = load i32, i32* %148, align 4
  %150 = call i32 (i8*, ...) @printf(i8* getelementptr inbounds ([6 x i8], [6 x i8]* @.str.1, i64 0, i64 0), i32 %145, i32 %149)
  br label %151

151:                                              ; preds = %141, %135
  br label %152

152:                                              ; preds = %151, %115
  br label %159

153:                                              ; preds = %87
  %154 = load i32, i32* %4, align 4
  %155 = sext i32 %154 to i64
  %156 = getelementptr inbounds [300 x i32], [300 x i32]* %1, i64 0, i64 %155
  %157 = load i32, i32* %156, align 4
  %158 = call i32 (i8*, ...) @printf(i8* getelementptr inbounds ([3 x i8], [3 x i8]* @.str, i64 0, i64 0), i32 %157)
  br label %159

159:                                              ; preds = %153, %152
  ret void
}

declare dso_local i32 @__isoc99_scanf(i8*, ...) #1

; Function Attrs: nounwind readnone speculatable willreturn
declare double @llvm.fabs.f64(double) #2

declare dso_local i32 @printf(i8*, ...) #1


!llvm.module.flags = !{!0}
!llvm.ident = !{!1}

!0 = !{i32 1, !"wchar_size", i32 4}
!1 = !{!"clang version 10.0.0-4ubuntu1 "}
